(dp0
S'Captain'
p1
(dp2
S'Shoot'
p3
I2
sS'Shield'
p4
I12
sS'Items'
p5
(lp6
VBlade
p7
asS'Move'
p8
I5
sS'Experience'
p9
I0
sS'Fight'
p10
I2
sS'Morale'
p11
I4
sS'Skillset'
p12
(lp13
VAim
p14
asS'Cost'
p15
I0
sS'Health'
p16
I12
sS'Specialism'
p17
VMarksman
p18
ssS'Treasury'
p19
I427
sS'Name'
p20
Vbigtask
p21
sS'Troops'
p22
(lp23
VLackey
p24
aVMedic
p25
as.